target datalayout = "e-m:e-p270:32:32-p271:32:32-p272:64:64-i64:64-i128:128-f80:128-n8:16:32:64-S128"
target triple = "x86_64-pc-linux-gnu"

%struct._VAConfigAttrib = type { i32, i32 }
%struct.AVCodecContext = type { ptr, i32, i32, ptr, i32, i32, ptr, ptr, ptr, i64, i32, i32, ptr, i32, %struct.AVRational, %struct.AVRational, %struct.AVRational, i32, i32, i32, i32, i32, %struct.AVRational, i32, i32, i32, i32, i32, i32, i32, i32, i32, i32, i32, ptr, ptr, i32, float, float, float, float, float, float, float, float, float, i32, i32, i32, i32, i32, i32, i32, i32, i32, i32, i32, i32, ptr, ptr, ptr, i32, i32, i32, i32, i32, i32, i32, i32, i32, i32, %struct.AVChannelLayout, i32, i32, i32, i32, i32, i32, i32, i32, ptr, i32, i32, i32, float, float, i32, i32, i32, i32, i32, ptr, i64, i64, float, float, i32, i32, ptr, ptr, i32, i32, i32, i32, i32, ptr, ptr, ptr, ptr, i32, i32, [8 x i64], i32, i32, i32, i32, i32, i32, i32, ptr, ptr, i32, i32, i32, i32, i32, i32, i32, i32, i32, i32, ptr, ptr, i32, i32, ptr, ptr, ptr, ptr, i32, i32, i64, i32, i32, i64, ptr, i64, ptr, i32, ptr, i32 }
%struct.AVRational = type { i32, i32 }
%struct.AVChannelLayout = type { i32, i32, %union.anon, ptr }
%union.anon = type { i64 }
%struct.VAAPIEncodeContext = type { %struct.FFHWBaseEncodeContext, ptr, i32, i32, i32, i32, i32, i32, ptr, ptr, i32, i32, i32, i32, i32, i32, [4 x %struct._VAConfigAttrib], i32, i32, i32, ptr, ptr, [4 x i32], [4 x ptr], [4 x i64], i32, %struct._VAEncMiscParameterRateControl, %struct._VAEncMiscParameterHRD, %struct._VAEncMiscParameterFrameRate, %struct._VAEncMiscParameterBufferMaxFrameSize, %struct._VAEncMiscParameterBufferQualityLevel, ptr, ptr, i32, i32, i32, i32, i32, i32, [20 x i32], [22 x i32], [21 x i32], [23 x i32], i32, i32, ptr, i32, i32 }
%struct.FFHWBaseEncodeContext = type { ptr, ptr, ptr, i32, i32, i32, i32, i32, i32, ptr, ptr, ptr, ptr, ptr, ptr, ptr, ptr, [2 x ptr], i32, i64, i64, i64, i64, i64, i64, i64, [112 x i64], i32, i32, i32, i32, i32, i32, i32, i32, i32, i32, i32, i32, i32, i32, i32, i32, ptr, i32, ptr, i32, ptr }
%struct._VAEncMiscParameterRateControl = type { i32, i32, i32, i32, i32, i32, %union.anon.0, i32, i32, i32, i32, [4 x i32] }
%union.anon.0 = type { %struct.anon }
%struct.anon = type { i32 }
%struct._VAEncMiscParameterHRD = type { i32, i32, [4 x i32] }
%struct._VAEncMiscParameterFrameRate = type { i32, %union.anon.1, [4 x i32] }
%union.anon.1 = type { %struct.anon.2 }
%struct.anon.2 = type { i32 }
%struct._VAEncMiscParameterBufferMaxFrameSize = type { i32, i32, [4 x i32] }
%struct._VAEncMiscParameterBufferQualityLevel = type { i32, [4 x i32] }
%struct.AVVAAPIDeviceContext = type { ptr, i32 }
%struct._VACodedBufferSegment = type { i32, i32, i32, i32, ptr, ptr, [4 x i32] }

@.str.56 = private unnamed_addr constant [40 x i8] c"Failed to map output buffers: %d (%s).\0A\00", align 1
@.str.57 = private unnamed_addr constant [42 x i8] c"Failed to unmap output buffers: %d (%s).\0A\00", align 1

; Function Attrs: nounwind uwtable
define internal i32 @vaapi_encode_get_coded_buffer_size(ptr noundef %0, i32 noundef %1) #0 {
  %3 = alloca i32, align 4
  %4 = alloca ptr, align 8
  %5 = alloca i32, align 4
  %6 = alloca ptr, align 8
  %7 = alloca ptr, align 8
  %8 = alloca ptr, align 8
  %9 = alloca i32, align 4
  %10 = alloca i32, align 4
  %11 = alloca i32, align 4
  %12 = alloca i32, align 4
  store ptr %0, ptr %4, align 8, !tbaa !4
  store i32 %1, ptr %5, align 4, !tbaa !37
  call void @llvm.lifetime.start.p0(i64 8, ptr %6) #10
  %13 = load ptr, ptr %4, align 8, !tbaa !4
  %14 = getelementptr inbounds nuw %struct.AVCodecContext, ptr %13, i32 0, i32 6
  %15 = load ptr, ptr %14, align 8, !tbaa !11
  store ptr %15, ptr %6, align 8, !tbaa !33
  call void @llvm.lifetime.start.p0(i64 8, ptr %7) #10
  call void @llvm.lifetime.start.p0(i64 8, ptr %8) #10
  call void @llvm.lifetime.start.p0(i64 4, ptr %9) #10
  store i32 0, ptr %9, align 4, !tbaa !37
  call void @llvm.lifetime.start.p0(i64 4, ptr %10) #10
  call void @llvm.lifetime.start.p0(i64 4, ptr %11) #10
  %16 = load ptr, ptr %6, align 8, !tbaa !33
  %17 = getelementptr inbounds nuw %struct.VAAPIEncodeContext, ptr %16, i32 0, i32 20
  %18 = load ptr, ptr %17, align 8, !tbaa !62
  %19 = getelementptr inbounds nuw %struct.AVVAAPIDeviceContext, ptr %18, i32 0, i32 0
  %20 = load ptr, ptr %19, align 8, !tbaa !75
  %21 = load i32, ptr %5, align 4, !tbaa !37
  %22 = call i32 @vaMapBuffer(ptr noundef %20, i32 noundef %21, ptr noundef %7)
  store i32 %22, ptr %10, align 4, !tbaa !37
  %23 = load i32, ptr %10, align 4, !tbaa !37
  %24 = icmp ne i32 %23, 0
  br i1 %24, label %25, label %31

25:                                               ; preds = %2
  %26 = load ptr, ptr %4, align 8, !tbaa !4
  %27 = load i32, ptr %10, align 4, !tbaa !37
  %28 = load i32, ptr %10, align 4, !tbaa !37
  %29 = call ptr @vaErrorStr(i32 noundef %28)
  call void (ptr, i32, ptr, ...) @av_log(ptr noundef %26, i32 noundef 16, ptr noundef @.str.56, i32 noundef %27, ptr noundef %29)
  store i32 -5, ptr %11, align 4, !tbaa !37
  %30 = load i32, ptr %11, align 4, !tbaa !37
  store i32 %30, ptr %3, align 4
  store i32 1, ptr %12, align 4
  br label %64

31:                                               ; preds = %2
  %32 = load ptr, ptr %7, align 8, !tbaa !344
  store ptr %32, ptr %8, align 8, !tbaa !344
  br label %33

33:                                               ; preds = %42, %31
  %34 = load ptr, ptr %8, align 8, !tbaa !344
  %35 = icmp ne ptr %34, null
  br i1 %35, label %36, label %46

36:                                               ; preds = %33
  %37 = load ptr, ptr %8, align 8, !tbaa !344
  %38 = getelementptr inbounds nuw %struct._VACodedBufferSegment, ptr %37, i32 0, i32 0
  %39 = load i32, ptr %38, align 8, !tbaa !346
  %40 = load i32, ptr %9, align 4, !tbaa !37
  %41 = add i32 %40, %39
  store i32 %41, ptr %9, align 4, !tbaa !37
  br label %42

42:                                               ; preds = %36
  %43 = load ptr, ptr %8, align 8, !tbaa !344
  %44 = getelementptr inbounds nuw %struct._VACodedBufferSegment, ptr %43, i32 0, i32 5
  %45 = load ptr, ptr %44, align 8, !tbaa !348
  store ptr %45, ptr %8, align 8, !tbaa !344
  br label %33, !llvm.loop !349

46:                                               ; preds = %33
  %47 = load ptr, ptr %6, align 8, !tbaa !33
  %48 = getelementptr inbounds nuw %struct.VAAPIEncodeContext, ptr %47, i32 0, i32 20
  %49 = load ptr, ptr %48, align 8, !tbaa !62
  %50 = getelementptr inbounds nuw %struct.AVVAAPIDeviceContext, ptr %49, i32 0, i32 0
  %51 = load ptr, ptr %50, align 8, !tbaa !75
  %52 = load i32, ptr %5, align 4, !tbaa !37
  %53 = call i32 @vaUnmapBuffer(ptr noundef %51, i32 noundef %52)
  store i32 %53, ptr %10, align 4, !tbaa !37
  %54 = load i32, ptr %10, align 4, !tbaa !37
  %55 = icmp ne i32 %54, 0
  br i1 %55, label %56, label %62

56:                                               ; preds = %46
  %57 = load ptr, ptr %4, align 8, !tbaa !4
  %58 = load i32, ptr %10, align 4, !tbaa !37
  %59 = load i32, ptr %10, align 4, !tbaa !37
  %60 = call ptr @vaErrorStr(i32 noundef %59)
  call void (ptr, i32, ptr, ...) @av_log(ptr noundef %57, i32 noundef 16, ptr noundef @.str.57, i32 noundef %58, ptr noundef %60)
  store i32 -5, ptr %11, align 4, !tbaa !37
  %61 = load i32, ptr %11, align 4, !tbaa !37
  store i32 %61, ptr %3, align 4
  store i32 1, ptr %12, align 4
  br label %64

62:                                               ; preds = %46
  %63 = load i32, ptr %9, align 4, !tbaa !37
  store i32 %63, ptr %3, align 4
  store i32 1, ptr %12, align 4
  br label %64

64:                                               ; preds = %62, %56, %25
  call void @llvm.lifetime.end.p0(i64 4, ptr %11) #10
  call void @llvm.lifetime.end.p0(i64 4, ptr %10) #10
  call void @llvm.lifetime.end.p0(i64 4, ptr %9) #10
  call void @llvm.lifetime.end.p0(i64 8, ptr %8) #10
  call void @llvm.lifetime.end.p0(i64 8, ptr %7) #10
  call void @llvm.lifetime.end.p0(i64 8, ptr %6) #10
  %65 = load i32, ptr %3, align 4
  ret i32 %65
}