; Function Attrs: nounwind uwtable
define internal fastcc i32 @vaapi_encode_get_coded_buffer_size(ptr noundef %0, i32 noundef %1) unnamed_addr #0 {
  %3 = alloca ptr, align 8
  %4 = getelementptr inbounds nuw i8, ptr %0, i64 32
  %5 = load ptr, ptr %4, align 8, !tbaa !4
  call void @llvm.lifetime.start.p0(i64 8, ptr nonnull %3) #9
  %6 = getelementptr inbounds nuw i8, ptr %5, i64 1312
  %7 = load ptr, ptr %6, align 8, !tbaa !52
  %8 = load ptr, ptr %7, align 8, !tbaa !65
  %9 = call i32 @vaMapBuffer(ptr noundef %8, i32 noundef %1, ptr noundef nonnull %3) #9
  %.not = icmp eq i32 %9, 0
  br i1 %.not, label %.preheader, label %10

.preheader:                                       ; preds = %2
  %.02026 = load ptr, ptr %3, align 8, !tbaa !98
  %.not2427 = icmp eq ptr %.02026, null
  br i1 %.not2427, label %._crit_edge, label %.lr.ph

10:                                               ; preds = %2
  %11 = call ptr @vaErrorStr(i32 noundef %9) #9
  call void (ptr, i32, ptr, ...) @av_log(ptr noundef nonnull %0, i32 noundef 16, ptr noundef nonnull @.str.56, i32 noundef %9, ptr noundef %11) #9
  br label %20

.lr.ph:                                           ; preds = %.preheader, %.lr.ph
  %.02029 = phi ptr [ %.020, %.lr.ph ], [ %.02026, %.preheader ]
  %.028 = phi i32 [ %13, %.lr.ph ], [ 0, %.preheader ]
  %12 = load i32, ptr %.02029, align 8, !tbaa !283
  %13 = add i32 %12, %.028
  %14 = getelementptr inbounds nuw i8, ptr %.02029, i64 24
  %.020 = load ptr, ptr %14, align 8, !tbaa !98
  %.not24 = icmp eq ptr %.020, null
  br i1 %.not24, label %._crit_edge, label %.lr.ph, !llvm.loop !285

._crit_edge:                                      ; preds = %.lr.ph, %.preheader
  %.0.lcssa = phi i32 [ 0, %.preheader ], [ %13, %.lr.ph ]
  %15 = load ptr, ptr %6, align 8, !tbaa !52
  %16 = load ptr, ptr %15, align 8, !tbaa !65
  %17 = call i32 @vaUnmapBuffer(ptr noundef %16, i32 noundef %1) #9
  %.not25 = icmp eq i32 %17, 0
  br i1 %.not25, label %20, label %18

18:                                               ; preds = %._crit_edge
  %19 = call ptr @vaErrorStr(i32 noundef %17) #9
  call void (ptr, i32, ptr, ...) @av_log(ptr noundef nonnull %0, i32 noundef 16, ptr noundef nonnull @.str.57, i32 noundef %17, ptr noundef %19) #9
  br label %20

20:                                               ; preds = %._crit_edge, %18, %10
  %.021 = phi i32 [ -5, %10 ], [ -5, %18 ], [ %.0.lcssa, %._crit_edge ]
  call void @llvm.lifetime.end.p0(i64 8, ptr nonnull %3) #9
  ret i32 %.021
}